; Function Attrs: nounwind uwtable
define void @Gia_ManConvertSupp_rec(ptr noundef %0, ptr noundef %1, ptr noundef %2) local_unnamed_addr #2 {
  %.val = load i64, ptr %2, align 4
  %4 = and i64 %.val, 2147483648
  %.not.i = icmp ne i64 %4, 0
  %5 = and i64 %.val, 536870911
  %6 = icmp eq i64 %5, 536870911
  %narrow.i.not = or i1 %.not.i, %6
  br i1 %narrow.i.not, label %common.ret19, label %7

7:                                                ; preds = %3
  %8 = getelementptr inbounds nuw i8, ptr %1, i64 616
  %9 = load ptr, ptr %8, align 8
  %10 = getelementptr i8, ptr %1, i64 32
  %.val.i = load ptr, ptr %10, align 8
  %11 = ptrtoint ptr %2 to i64
  %12 = ptrtoint ptr %.val.i to i64
  %13 = sub i64 %11, %12
  %14 = sdiv exact i64 %13, 12
  %sext.i = shl i64 %14, 32
  %15 = ashr exact i64 %sext.i, 30
  %16 = getelementptr inbounds i8, ptr %9, i64 %15
  %17 = load i32, ptr %16, align 4
  %18 = getelementptr inbounds nuw i8, ptr %1, i64 176
  %19 = load i32, ptr %18, align 8
  %.not = icmp eq i32 %17, %19
  br i1 %.not, label %common.ret19, label %20

common.ret19:                                     ; preds = %7, %3, %20
  ret void

20:                                               ; preds = %7
  store i32 %19, ptr %16, align 4
  %21 = load i64, ptr %2, align 4
  %22 = and i64 %21, 536870911
  %23 = sub nsw i64 0, %22
  %24 = getelementptr inbounds %struct.Gia_Obj_t_, ptr %2, i64 %23
  tail call void @Gia_ManConvertSupp_rec(ptr noundef %0, ptr noundef nonnull %1, ptr noundef nonnull %24)
  %25 = load i64, ptr %2, align 4
  %26 = lshr i64 %25, 32
  %27 = and i64 %26, 536870911
  %28 = sub nsw i64 0, %27
  %29 = getelementptr inbounds %struct.Gia_Obj_t_, ptr %2, i64 %28
  tail call void @Gia_ManConvertSupp_rec(ptr noundef %0, ptr noundef nonnull %1, ptr noundef nonnull %29)
  %30 = load i64, ptr %2, align 4
  %31 = and i64 %30, 536870911
  %32 = sub nsw i64 0, %31
  %33 = getelementptr inbounds %struct.Gia_Obj_t_, ptr %2, i64 %32, i32 1
  %34 = load i32, ptr %33, align 4
  %35 = trunc i64 %30 to i32
  %36 = lshr i32 %35, 29
  %37 = and i32 %36, 1
  %38 = xor i32 %37, %34
  %39 = lshr i64 %30, 32
  %40 = and i64 %39, 536870911
  %41 = sub nsw i64 0, %40
  %42 = getelementptr inbounds %struct.Gia_Obj_t_, ptr %2, i64 %41, i32 1
  %43 = load i32, ptr %42, align 4
  %44 = lshr i64 %30, 61
  %45 = trunc nuw nsw i64 %44 to i32
  %46 = and i32 %45, 1
  %47 = xor i32 %46, %43
  %48 = tail call i32 @Gia_ManHashAnd(ptr noundef %0, i32 noundef %38, i32 noundef %47) #36
  %49 = getelementptr inbounds nuw i8, ptr %2, i64 8
  store i32 %48, ptr %49, align 4
  br label %common.ret19
}